target datalayout = "e-m:e-p270:32:32-p271:32:32-p272:64:64-i64:64-i128:128-f80:128-n8:16:32:64-S128"
target triple = "x86_64-pc-linux-gnu"

%class.Compile = type <{ %class.Phase, i32, %class.Options, [4 x i8], ptr, i32, [4 x i8], ptr, ptr, ptr, ptr, ptr, i32, i32, i32, [4 x i8], i64, i8, i8, [2 x i8], i32, i8, i8, i8, i8, i8, i8, i8, i8, i8, [3 x i8], i32, i8, [3 x i8], [30 x i32], i8, [3 x i8], i32, i8, i8, i8, i8, i8, i8, i8, i8, i8, i8, i8, i8, i8, [3 x i8], i32, i32, [4 x i8], %class.Arena, ptr, ptr, ptr, ptr, %class.CHeapStringHolder, ptr, %class.GrowableArray, %class.GrowableArray.0, %class.GrowableArray.3, %class.GrowableArray.0, %class.GrowableArray.0, %class.GrowableArray.0, %class.GrowableArray.6, %class.GrowableArray.9, ptr, i32, i32, %class.VectorSet, %class.Arena, %class.Arena, ptr, ptr, ptr, ptr, ptr, ptr, ptr, ptr, ptr, %class.Arena, ptr, ptr, %class.CloneMap, i64, ptr, ptr, ptr, i32, i32, [64 x %"struct.Compile::AliasCacheEntry"], ptr, ptr, ptr, ptr, %class.GrowableArray, %class.GrowableArray, %class.GrowableArray, %class.GrowableArray, i32, i32, i8, [7 x i8], ptr, ptr, i32, [4 x i8], ptr, ptr, ptr, i32, i32, ptr, ptr, %class.RegMask, ptr, ptr, i32, [4 x i8], ptr, %class.TimeInstant, i32, [4 x i8] }>
%class.Phase = type { i32, ptr }
%class.Options = type { i8, i8, i8, i8, i8, i8, i8, i8 }
%class.CHeapStringHolder = type { ptr }
%class.GrowableArray.3 = type { %class.GrowableArrayWithAllocator.4, %class.GrowableArrayMetadata }
%class.GrowableArrayWithAllocator.4 = type { %class.GrowableArrayView.5 }
%class.GrowableArrayView.5 = type { %class.GrowableArrayBase, ptr }
%class.GrowableArrayBase = type { i32, i32 }
%class.GrowableArrayMetadata = type { i64 }
%class.GrowableArray.0 = type { %class.GrowableArrayWithAllocator.1, %class.GrowableArrayMetadata }
%class.GrowableArrayWithAllocator.1 = type { %class.GrowableArrayView.2 }
%class.GrowableArrayView.2 = type { %class.GrowableArrayBase, ptr }
%class.GrowableArray.6 = type { %class.GrowableArrayWithAllocator.7, %class.GrowableArrayMetadata }
%class.GrowableArrayWithAllocator.7 = type { %class.GrowableArrayView.8 }
%class.GrowableArrayView.8 = type { %class.GrowableArrayBase, ptr }
%class.GrowableArray.9 = type { %class.GrowableArrayWithAllocator.10, %class.GrowableArrayMetadata }
%class.GrowableArrayWithAllocator.10 = type { %class.GrowableArrayView.11 }
%class.GrowableArrayView.11 = type { %class.GrowableArrayBase, ptr }
%class.VectorSet = type { i32, ptr, i32, ptr }
%class.Arena = type { i8, i8, i64, ptr, ptr, ptr, ptr }
%class.CloneMap = type <{ i8, [7 x i8], ptr, i32, [4 x i8] }>
%"struct.Compile::AliasCacheEntry" = type { ptr, i32 }
%class.GrowableArray = type { %class.GrowableArrayWithAllocator, %class.GrowableArrayMetadata }
%class.GrowableArrayWithAllocator = type { %class.GrowableArrayView }
%class.GrowableArrayView = type { %class.GrowableArrayBase, ptr }
%class.RegMask = type { %union.anon, i32, i32 }
%union.anon = type { [11 x i64] }
%class.TimeInstant = type { %class.CompositeCounterRepresentation }
%class.CompositeCounterRepresentation = type { %class.Representation }
%class.Representation = type { %class.PairRep }
%class.PairRep = type { i64, i64 }
%class.ciMethod = type { %class.ciMetadata, %class.ciFlags, ptr, ptr, ptr, ptr, ptr, i32, i32, i32, i32, i32, i32, i32, i32, i32, i8, i8, i8, i8, i8, i8, i8, i8, i8, ptr, ptr, ptr, ptr, ptr }
%class.ciMetadata = type { %class.ciBaseObject.base, ptr }
%class.ciBaseObject.base = type <{ ptr, i32 }>
%class.ciFlags = type <{ i32, i8, i8, [2 x i8] }>
%class.ciMethodData = type { %class.ciMetadata, i32, i32, ptr, i32, i32, i32, i8, i8, i64, i64, i64, i64, i32, %"class.MethodData::CompilerCounters" }
%"class.MethodData::CompilerCounters" = type { i32, i32, i32, %union.anon.32 }
%union.anon.32 = type { i64, [56 x i8] }

@.str.38 = private unnamed_addr constant [52 x i8] c"observe trap='%s' count='0' mcount='%d' ccount='%d'\00", align 1
@PerMethodSpecTrapLimit = external global i64, align 8
@PerMethodTrapLimit = external global i64, align 8

; Function Attrs: mustprogress nounwind uwtable
define linkonce_odr hidden noundef i32 @_ZNK10MethodData16CompilerCounters10trap_countEi(ptr noundef nonnull align 8 dereferenceable(80) %0, i32 noundef %1) #1 comdat align 2 {
  %3 = alloca ptr, align 8
  %4 = alloca i32, align 4
  store ptr %0, ptr %3, align 8
  store i32 %1, ptr %4, align 4
  %5 = load ptr, ptr %3, align 8
  %6 = getelementptr inbounds %"class.MethodData::CompilerCounters", ptr %5, i32 0, i32 3
  %7 = load i32, ptr %4, align 4
  %8 = sext i32 %7 to i64
  %9 = getelementptr inbounds [60 x i8], ptr %6, i64 0, i64 %8
  %10 = load i8, ptr %9, align 1
  %11 = zext i8 %10 to i32
  %12 = add nsw i32 %11, 1
  %13 = and i32 %12, 255
  %14 = sub nsw i32 %13, 1
  ret i32 %14
}

; Function Attrs: mustprogress nounwind uwtable
define linkonce_odr hidden noundef zeroext i1 @_ZN14Deoptimization19reason_is_speculateEi(i32 noundef %0) #1 comdat align 2 {
  %2 = alloca i1, align 1
  %3 = alloca i32, align 4
  store i32 %0, ptr %3, align 4
  %4 = load i32, ptr %3, align 4
  %5 = icmp eq i32 %4, 19
  br i1 %5, label %12, label %6

6:                                                ; preds = %1
  %7 = load i32, ptr %3, align 4
  %8 = icmp eq i32 %7, 20
  br i1 %8, label %12, label %9

9:                                                ; preds = %6
  %10 = load i32, ptr %3, align 4
  %11 = icmp eq i32 %10, 21
  br i1 %11, label %12, label %13

12:                                               ; preds = %9, %6, %1
  store i1 true, ptr %2, align 1
  br label %14

13:                                               ; preds = %9
  store i1 false, ptr %2, align 1
  br label %14

14:                                               ; preds = %13, %12
  %15 = load i1, ptr %2, align 1
  ret i1 %15
}

; Function Attrs: mustprogress nounwind uwtable
define linkonce_odr hidden void @_ZNK8ciMethod15check_is_loadedEv(ptr noundef nonnull align 8 dereferenceable(160) %0) #1 comdat align 2 {
  %2 = alloca ptr, align 8
  store ptr %0, ptr %2, align 8
  ret void
}

; Function Attrs: mustprogress nounwind uwtable
define linkonce_odr hidden noundef i32 @_ZNK12ciMethodData10trap_countEi(ptr noundef nonnull align 8 dereferenceable(176) %0, i32 noundef %1) #1 comdat align 2 {
  %3 = alloca ptr, align 8
  %4 = alloca i32, align 4
  store ptr %0, ptr %3, align 8
  store i32 %1, ptr %4, align 4
  %5 = load ptr, ptr %3, align 8
  %6 = getelementptr inbounds %class.ciMethodData, ptr %5, i32 0, i32 14
  %7 = load i32, ptr %4, align 4
  %8 = call noundef i32 @_ZNK10MethodData16CompilerCounters10trap_countEi(ptr noundef nonnull align 8 dereferenceable(80) %6, i32 noundef %7)
  ret i32 %8
}

; Function Attrs: mustprogress nounwind uwtable
define linkonce_odr hidden noundef ptr @_ZNK7Compile3logEv(ptr noundef nonnull align 8 dereferenceable(2316) %0) #1 comdat align 2 {
  %2 = alloca ptr, align 8
  store ptr %0, ptr %2, align 8
  %3 = load ptr, ptr %2, align 8
  %4 = getelementptr inbounds %class.Compile, ptr %3, i32 0, i32 59
  %5 = load ptr, ptr %4, align 8
  ret ptr %5
}

; Function Attrs: mustprogress nounwind uwtable
define linkonce_odr hidden noundef i32 @_ZN14Deoptimization21per_method_trap_limitEi(i32 noundef %0) #1 comdat align 2 {
  %2 = alloca i32, align 4
  store i32 %0, ptr %2, align 4
  %3 = load i32, ptr %2, align 4
  %4 = call noundef zeroext i1 @_ZN14Deoptimization19reason_is_speculateEi(i32 noundef %3)
  br i1 %4, label %5, label %8

5:                                                ; preds = %1
  %6 = load i64, ptr @PerMethodSpecTrapLimit, align 8
  %7 = trunc i64 %6 to i32
  br label %11

8:                                                ; preds = %1
  %9 = load i64, ptr @PerMethodTrapLimit, align 8
  %10 = trunc i64 %9 to i32
  br label %11

11:                                               ; preds = %8, %5
  %12 = phi i32 [ %7, %5 ], [ %10, %8 ]
  ret i32 %12
}

; Function Attrs: mustprogress nounwind uwtable
define linkonce_odr hidden noundef i32 @_ZNK7Compile10trap_countEj(ptr noundef nonnull align 8 dereferenceable(2316) %0, i32 noundef %1) #1 comdat align 2 {
  %3 = alloca ptr, align 8
  %4 = alloca i32, align 4
  store ptr %0, ptr %3, align 8
  store i32 %1, ptr %4, align 4
  %5 = load ptr, ptr %3, align 8
  %6 = getelementptr inbounds %class.Compile, ptr %5, i32 0, i32 34
  %7 = load i32, ptr %4, align 4
  %8 = zext i32 %7 to i64
  %9 = getelementptr inbounds [30 x i32], ptr %6, i64 0, i64 %8
  %10 = load i32, ptr %9, align 4
  ret i32 %10
}

; Function Attrs: mustprogress nounwind uwtable
define linkonce_odr hidden noundef zeroext i1 @_ZNK7ciFlags9is_nativeEv(ptr noundef nonnull align 4 dereferenceable(6) %0) #1 comdat align 2 {
  %2 = alloca ptr, align 8
  store ptr %0, ptr %2, align 8
  %3 = load ptr, ptr %2, align 8
  %4 = getelementptr inbounds %class.ciFlags, ptr %3, i32 0, i32 0
  %5 = load i32, ptr %4, align 4
  %6 = and i32 %5, 256
  %7 = icmp ne i32 %6, 0
  ret i1 %7
}

; Function Attrs: mustprogress nounwind uwtable
define linkonce_odr hidden i64 @_ZNK8ciMethod5flagsEv(ptr noundef nonnull align 8 dereferenceable(160) %0) #1 comdat align 2 {
  %2 = alloca %class.ciFlags, align 4
  %3 = alloca ptr, align 8
  store ptr %0, ptr %3, align 8
  %4 = load ptr, ptr %3, align 8
  call void @_ZNK8ciMethod15check_is_loadedEv(ptr noundef nonnull align 8 dereferenceable(160) %4)
  %5 = getelementptr inbounds %class.ciMethod, ptr %4, i32 0, i32 1
  call void @llvm.memcpy.p0.p0.i64(ptr align 4 %2, ptr align 8 %5, i64 8, i1 false)
  %6 = load i64, ptr %2, align 4
  ret i64 %6
}

; Function Attrs: mustprogress nounwind uwtable
define hidden noundef zeroext i1 @_ZN7Compile14too_many_trapsEN14Deoptimization11DeoptReasonEP12ciMethodData(ptr noundef nonnull align 8 dereferenceable(2316) %0, i32 noundef %1, ptr noundef %2) #1 align 2 {
  %4 = alloca i1, align 1
  %5 = alloca ptr, align 8
  %6 = alloca i32, align 4
  %7 = alloca ptr, align 8
  %8 = alloca i32, align 4
  store ptr %0, ptr %5, align 8
  store i32 %1, ptr %6, align 4
  store ptr %2, ptr %7, align 8
  %9 = load ptr, ptr %5, align 8
  %10 = load i32, ptr %6, align 4
  %11 = call noundef i32 @_ZNK7Compile10trap_countEj(ptr noundef nonnull align 8 dereferenceable(2316) %9, i32 noundef %10)
  %12 = load i32, ptr %6, align 4
  %13 = call noundef i32 @_ZN14Deoptimization21per_method_trap_limitEi(i32 noundef %12)
  %14 = icmp uge i32 %11, %13
  br i1 %14, label %15, label %35

15:                                               ; preds = %3
  %16 = call noundef ptr @_ZNK7Compile3logEv(ptr noundef nonnull align 8 dereferenceable(2316) %9)
  %17 = icmp ne ptr %16, null
  br i1 %17, label %18, label %34

18:                                               ; preds = %15
  %19 = load ptr, ptr %7, align 8
  %20 = icmp eq ptr %19, null
  br i1 %20, label %21, label %22

21:                                               ; preds = %18
  br label %26

22:                                               ; preds = %18
  %23 = load ptr, ptr %7, align 8
  %24 = load i32, ptr %6, align 4
  %25 = call noundef i32 @_ZNK12ciMethodData10trap_countEi(ptr noundef nonnull align 8 dereferenceable(176) %23, i32 noundef %24)
  br label %26

26:                                               ; preds = %22, %21
  %27 = phi i32 [ -1, %21 ], [ %25, %22 ]
  store i32 %27, ptr %8, align 4
  %28 = call noundef ptr @_ZNK7Compile3logEv(ptr noundef nonnull align 8 dereferenceable(2316) %9)
  %29 = load i32, ptr %6, align 4
  %30 = call noundef ptr @_ZN14Deoptimization16trap_reason_nameEi(i32 noundef %29)
  %31 = load i32, ptr %8, align 4
  %32 = load i32, ptr %6, align 4
  %33 = call noundef i32 @_ZNK7Compile10trap_countEj(ptr noundef nonnull align 8 dereferenceable(2316) %9, i32 noundef %32)
  call void (ptr, ptr, ...) @_ZN9xmlStream4elemEPKcz(ptr noundef nonnull align 8 dereferenceable(152) %28, ptr noundef @.str.38, ptr noundef %30, i32 noundef %31, i32 noundef %33)
  br label %34

34:                                               ; preds = %26, %15
  store i1 true, ptr %4, align 1
  br label %36

35:                                               ; preds = %3
  store i1 false, ptr %4, align 1
  br label %36

36:                                               ; preds = %35, %34
  %37 = load i1, ptr %4, align 1
  ret i1 %37
}

; Function Attrs: mustprogress nounwind uwtable
define linkonce_odr hidden noundef zeroext i1 @_ZNK7Compile21is_method_compilationEv(ptr noundef nonnull align 8 dereferenceable(2316) %0) #1 comdat align 2 {
  %2 = alloca ptr, align 8
  %3 = alloca %class.ciFlags, align 4
  store ptr %0, ptr %2, align 8
  %4 = load ptr, ptr %2, align 8
  %5 = getelementptr inbounds %class.Compile, ptr %4, i32 0, i32 4
  %6 = load ptr, ptr %5, align 8
  %7 = icmp ne ptr %6, null
  br i1 %7, label %8, label %14

8:                                                ; preds = %1
  %9 = getelementptr inbounds %class.Compile, ptr %4, i32 0, i32 4
  %10 = load ptr, ptr %9, align 8
  %11 = call i64 @_ZNK8ciMethod5flagsEv(ptr noundef nonnull align 8 dereferenceable(160) %10)
  store i64 %11, ptr %3, align 4
  %12 = call noundef zeroext i1 @_ZNK7ciFlags9is_nativeEv(ptr noundef nonnull align 4 dereferenceable(6) %3)
  %13 = xor i1 %12, true
  br label %14

14:                                               ; preds = %8, %1
  %15 = phi i1 [ false, %1 ], [ %13, %8 ]
  ret i1 %15
}

; Function Attrs: mustprogress nounwind uwtable
define hidden void @_ZN7Compile25set_allowed_deopt_reasonsEv(ptr noundef nonnull align 8 dereferenceable(2316) %0) #1 align 2 {
  %2 = alloca ptr, align 8
  %3 = alloca i32, align 4
  store ptr %0, ptr %2, align 8
  %4 = load ptr, ptr %2, align 8
  %5 = getelementptr inbounds %class.Compile, ptr %4, i32 0, i32 126
  store i32 0, ptr %5, align 8
  %6 = call noundef zeroext i1 @_ZNK7Compile21is_method_compilationEv(ptr noundef nonnull align 8 dereferenceable(2316) %4)
  br i1 %6, label %7, label %34

7:                                                ; preds = %1
  store i32 1, ptr %3, align 4
  br label %8

8:                                                ; preds = %30, %7
  %9 = load i32, ptr %3, align 4
  %10 = icmp slt i32 %9, 30
  br i1 %10, label %11, label %33

11:                                               ; preds = %8
  %12 = load i32, ptr %3, align 4
  %13 = call noundef zeroext i1 @_ZN7Compile14too_many_trapsEN14Deoptimization11DeoptReasonEP12ciMethodData(ptr noundef nonnull align 8 dereferenceable(2316) %4, i32 noundef %12, ptr noundef null)
  br i1 %13, label %29, label %14

14:                                               ; preds = %11
  %15 = load i32, ptr %3, align 4
  %16 = icmp sge i32 %15, 64
  br i1 %16, label %17, label %18

17:                                               ; preds = %14
  br label %22

18:                                               ; preds = %14
  %19 = load i32, ptr %3, align 4
  %20 = zext i32 %19 to i64
  %21 = shl i64 1, %20
  br label %22

22:                                               ; preds = %18, %17
  %23 = phi i64 [ 0, %17 ], [ %21, %18 ]
  %24 = getelementptr inbounds %class.Compile, ptr %4, i32 0, i32 126
  %25 = load i32, ptr %24, align 8
  %26 = sext i32 %25 to i64
  %27 = or i64 %26, %23
  %28 = trunc i64 %27 to i32
  store i32 %28, ptr %24, align 8
  br label %29

29:                                               ; preds = %22, %11
  br label %30

30:                                               ; preds = %29
  %31 = load i32, ptr %3, align 4
  %32 = add nsw i32 %31, 1
  store i32 %32, ptr %3, align 4
  br label %8, !llvm.loop !29

33:                                               ; preds = %8
  br label %34

34:                                               ; preds = %33, %1
  ret void
}