; Function Attrs: mustprogress nounwind uwtable
define hidden void @_ZN7Compile25set_allowed_deopt_reasonsEv(ptr nocapture noundef nonnull align 8 dereferenceable(2316) %0) local_unnamed_addr #0 align 2 {
  %2 = getelementptr inbounds i8, ptr %0, i64 2312
  store i32 0, ptr %2, align 8
  %3 = getelementptr inbounds i8, ptr %0, i64 32
  %4 = load ptr, ptr %3, align 8
  %.not.i = icmp eq ptr %4, null
  br i1 %.not.i, label %_ZNK7Compile21is_method_compilationEv.exit.thread, label %_ZNK7Compile21is_method_compilationEv.exit

_ZNK7Compile21is_method_compilationEv.exit:       ; preds = %1
  %5 = getelementptr inbounds i8, ptr %4, i64 24
  %.sroa.0.0.copyload.i.i = load i64, ptr %5, align 8
  %6 = and i64 %.sroa.0.0.copyload.i.i, 256
  %.not1.i = icmp eq i64 %6, 0
  br i1 %.not1.i, label %.preheader, label %_ZNK7Compile21is_method_compilationEv.exit.thread

.preheader:                                       ; preds = %_ZNK7Compile21is_method_compilationEv.exit
  %7 = getelementptr inbounds i8, ptr %0, i64 140
  %8 = getelementptr inbounds i8, ptr %0, i64 368
  %.pre8 = load i64, ptr @PerMethodSpecTrapLimit, align 8
  %.pre10 = load i64, ptr @PerMethodTrapLimit, align 8
  br label %9

9:                                                ; preds = %.preheader, %_ZN7Compile14too_many_trapsEN14Deoptimization11DeoptReasonEP12ciMethodData.exit.thread
  %10 = phi i64 [ %.pre10, %.preheader ], [ %27, %_ZN7Compile14too_many_trapsEN14Deoptimization11DeoptReasonEP12ciMethodData.exit.thread ]
  %11 = phi i64 [ %.pre8, %.preheader ], [ %28, %_ZN7Compile14too_many_trapsEN14Deoptimization11DeoptReasonEP12ciMethodData.exit.thread ]
  %indvars.iv = phi i64 [ 1, %.preheader ], [ %indvars.iv.next, %_ZN7Compile14too_many_trapsEN14Deoptimization11DeoptReasonEP12ciMethodData.exit.thread ]
  %12 = getelementptr inbounds [30 x i32], ptr %7, i64 0, i64 %indvars.iv
  %13 = load i32, ptr %12, align 4
  %14 = trunc i64 %indvars.iv to i32
  %15 = add i32 %14, -19
  %or.cond3.i.i.i = icmp ult i32 %15, 3
  %.v.i.i = select i1 %or.cond3.i.i.i, i64 %11, i64 %10
  %16 = trunc i64 %.v.i.i to i32
  %.not.i5.not = icmp ult i32 %13, %16
  br i1 %.not.i5.not, label %_ZN7Compile14too_many_trapsEN14Deoptimization11DeoptReasonEP12ciMethodData.exit, label %17

17:                                               ; preds = %9
  %18 = load ptr, ptr %8, align 8
  %.not10.i = icmp eq ptr %18, null
  br i1 %.not10.i, label %_ZN7Compile14too_many_trapsEN14Deoptimization11DeoptReasonEP12ciMethodData.exit.thread, label %19

19:                                               ; preds = %17
  %20 = trunc nuw nsw i64 %indvars.iv to i32
  %21 = tail call noundef ptr @_ZN14Deoptimization16trap_reason_nameEi(i32 noundef %20) #17
  %22 = load i32, ptr %12, align 4
  tail call void (ptr, ptr, ...) @_ZN9xmlStream4elemEPKcz(ptr noundef nonnull align 8 dereferenceable(152) %18, ptr noundef nonnull @.str.38, ptr noundef %21, i32 noundef -1, i32 noundef %22) #17
  %.pre = load i64, ptr @PerMethodSpecTrapLimit, align 8
  %.pre9 = load i64, ptr @PerMethodTrapLimit, align 8
  br label %_ZN7Compile14too_many_trapsEN14Deoptimization11DeoptReasonEP12ciMethodData.exit.thread

_ZN7Compile14too_many_trapsEN14Deoptimization11DeoptReasonEP12ciMethodData.exit: ; preds = %9
  %23 = shl nuw nsw i64 1, %indvars.iv
  %24 = load i32, ptr %2, align 8
  %25 = trunc nuw i64 %23 to i32
  %26 = or i32 %24, %25
  store i32 %26, ptr %2, align 8
  br label %_ZN7Compile14too_many_trapsEN14Deoptimization11DeoptReasonEP12ciMethodData.exit.thread

_ZN7Compile14too_many_trapsEN14Deoptimization11DeoptReasonEP12ciMethodData.exit.thread: ; preds = %19, %17, %_ZN7Compile14too_many_trapsEN14Deoptimization11DeoptReasonEP12ciMethodData.exit
  %27 = phi i64 [ %.pre9, %19 ], [ %10, %17 ], [ %10, %_ZN7Compile14too_many_trapsEN14Deoptimization11DeoptReasonEP12ciMethodData.exit ]
  %28 = phi i64 [ %.pre, %19 ], [ %11, %17 ], [ %11, %_ZN7Compile14too_many_trapsEN14Deoptimization11DeoptReasonEP12ciMethodData.exit ]
  %indvars.iv.next = add nuw nsw i64 %indvars.iv, 1
  %exitcond.not = icmp eq i64 %indvars.iv.next, 30
  br i1 %exitcond.not, label %_ZNK7Compile21is_method_compilationEv.exit.thread, label %9, !llvm.loop !37

_ZNK7Compile21is_method_compilationEv.exit.thread: ; preds = %_ZN7Compile14too_many_trapsEN14Deoptimization11DeoptReasonEP12ciMethodData.exit.thread, %1, %_ZNK7Compile21is_method_compilationEv.exit
  ret void
}